(lp0
(ccopy_reg
_reconstructor
p1
(cBio.Seq
Seq
p2
c__builtin__
object
p3
Ntp4
Rp5
(dp6
S'alphabet'
p7
g1
(cBio.Alphabet
SingleLetterAlphabet
p8
g3
Ntp9
Rp10
sS'_data'
p11
S'SVKGVDSHGGDDSDPEFSLKEQLNRRQKTYRDCHLLIAPPIGAVTLENKRKTASYKNTSIVVKELQAYMTAMSKALGRADEDLIPNIPGVENAPESVNTRAVLGSAHEDFICQSAVPLWVRWLYQIFQRVESTKPGDALYDINGDLRIGIHNMFEVTPCIELILHTEKKALFTLMDGVALASFSGEALRFVKQFGTGMQY'
p12
sbg1
(g2
g3
Ntp13
Rp14
(dp15
g7
g10
sg11
S'SVKGVDSHGGDDSDPEFSLKEQLNRRQKTYRDCHLLIAPPIGAVTLENKRKTASYKNTSIVVKELQAYMTAMSKALGRADEDLIPNIPGVENAPESVNTRAVLGSAHEDFICQSAVPLWVRWLYQIFQRVESTKPGDALYDINGDLRIGIHNMFEVTPCIELILHTEKKALKTLMDGVALASFSGEALRFVKQFGTGMQY'
p16
sbtp17
a(g5
g1
(g2
g3
Ntp18
Rp19
(dp20
g7
g10
sg11
S'SVKGVDSHGGDDSDPEFSLKEQLNRRQKTYRDCHLLIAPPIGAVTLENKRKTASYKNTSIVVKELQAYMTAMSKALGRADEDLIPNIPGVENAPESVNTRAVLGSAHEDFICQSAVPLWVRWLYQLFQRVESTKPGDALYDINGDLRIGIHNMFEVTPCIELILHTEKKALKTLMDGVALASFSGEALRFVKQFGTGMQY'
p21
sbtp22
a(g1
(g2
g3
Ntp23
Rp24
(dp25
g7
g10
sg11
S'SVKGVDSHGGDDSDPEFSLKEQPNRRQKTYRDCHLLIAPPIGAVTLENKRKTASYKNTSIVVKELQAYMTAMSKALGRADEDLIPNIPGVENAPESVNTRAVLGSAHEDFICQSAVPLWVRWLYQLFQRVESTKPGDALYDINGDLRIGIHNMFEVTPCIELILHTEKKALKTLMDGVALASFSGEALRFVKQFGTGMQY'
p26
sbg14
tp27
a(g24
g19
tp28
a(g14
g19
tp29
a.